target datalayout = "e-m:e-p270:32:32-p271:32:32-p272:64:64-i64:64-i128:128-f80:128-n8:16:32:64-S128"
target triple = "x86_64-pc-linux-gnu"

%struct.H5E_cls_t = type { i8, ptr, ptr, ptr }

@H5E_init_g = external global i8, align 1
@H5_libterm_g = external global i8, align 1

; Function Attrs: nounwind uwtable
define i64 @H5E__get_class_name(ptr noundef %0, ptr noundef %1, i64 noundef %2) #0 {
  %4 = alloca ptr, align 8
  %5 = alloca ptr, align 8
  %6 = alloca i64, align 8
  %7 = alloca i64, align 8
  store ptr %0, ptr %4, align 8, !tbaa !32
  store ptr %1, ptr %5, align 8, !tbaa !13
  store i64 %2, ptr %6, align 8, !tbaa !11
  call void @llvm.lifetime.start.p0(i64 8, ptr %7) #9
  store i64 -1, ptr %7, align 8, !tbaa !11
  %8 = load i8, ptr @H5E_init_g, align 1, !tbaa !7, !range !9, !noundef !10
  %9 = trunc i8 %8 to i1
  br i1 %9, label %14, label %10

10:                                               ; preds = %3
  %11 = load i8, ptr @H5_libterm_g, align 1, !tbaa !7, !range !9, !noundef !10
  %12 = trunc i8 %11 to i1
  %13 = xor i1 %12, true
  br label %14

14:                                               ; preds = %10, %3
  %15 = phi i1 [ true, %3 ], [ %13, %10 ]
  %16 = xor i1 %15, true
  %17 = xor i1 %16, true
  %18 = zext i1 %17 to i32
  %19 = sext i32 %18 to i64
  %20 = call i64 @llvm.expect.i64(i64 %19, i64 1)
  %21 = icmp ne i64 %20, 0
  br i1 %21, label %22, label %46

22:                                               ; preds = %14
  %23 = load ptr, ptr %4, align 8, !tbaa !32
  %24 = getelementptr inbounds nuw %struct.H5E_cls_t, ptr %23, i32 0, i32 1
  %25 = load ptr, ptr %24, align 8, !tbaa !36
  %26 = call i64 @strlen(ptr noundef %25) #10
  store i64 %26, ptr %7, align 8, !tbaa !11
  %27 = load ptr, ptr %5, align 8, !tbaa !13
  %28 = icmp ne ptr %27, null
  br i1 %28, label %29, label %45

29:                                               ; preds = %22
  %30 = load ptr, ptr %5, align 8, !tbaa !13
  %31 = load ptr, ptr %4, align 8, !tbaa !32
  %32 = getelementptr inbounds nuw %struct.H5E_cls_t, ptr %31, i32 0, i32 1
  %33 = load ptr, ptr %32, align 8, !tbaa !36
  %34 = load i64, ptr %6, align 8, !tbaa !11
  %35 = call ptr @strncpy(ptr noundef %30, ptr noundef %33, i64 noundef %34) #9
  %36 = load i64, ptr %7, align 8, !tbaa !11
  %37 = load i64, ptr %6, align 8, !tbaa !11
  %38 = icmp uge i64 %36, %37
  br i1 %38, label %39, label %44

39:                                               ; preds = %29
  %40 = load ptr, ptr %5, align 8, !tbaa !13
  %41 = load i64, ptr %6, align 8, !tbaa !11
  %42 = sub i64 %41, 1
  %43 = getelementptr inbounds nuw i8, ptr %40, i64 %42
  store i8 0, ptr %43, align 1, !tbaa !28
  br label %44

44:                                               ; preds = %39, %29
  br label %45

45:                                               ; preds = %44, %22
  br label %46

46:                                               ; preds = %45, %14
  %47 = load i64, ptr %7, align 8, !tbaa !11
  call void @llvm.lifetime.end.p0(i64 8, ptr %7) #9
  ret i64 %47
}