; Function Attrs: mustprogress nofree nounwind willreturn memory(readwrite, inaccessiblemem: none) uwtable
define i64 @H5E__get_class_name(ptr noundef readonly captures(none) %0, ptr noundef %1, i64 noundef %2) local_unnamed_addr #5 {
  %4 = load i8, ptr @H5E_init_g, align 1, !tbaa !3, !range !7, !noundef !8
  %5 = trunc nuw i8 %4 to i1
  %6 = load i8, ptr @H5_libterm_g, align 1, !range !7
  %7 = trunc nuw i8 %6 to i1
  %8 = xor i1 %7, true
  %9 = select i1 %5, i1 true, i1 %8
  br i1 %9, label %10, label %19, !prof !9

10:                                               ; preds = %3
  %11 = getelementptr inbounds nuw i8, ptr %0, i64 8
  %12 = load ptr, ptr %11, align 8, !tbaa !40
  %13 = tail call i64 @strlen(ptr noundef nonnull dereferenceable(1) %12) #17
  %.not = icmp eq ptr %1, null
  br i1 %.not, label %19, label %14

14:                                               ; preds = %10
  %15 = tail call ptr @strncpy(ptr noundef nonnull %1, ptr noundef nonnull %12, i64 noundef %2) #16
  %.not12 = icmp ult i64 %13, %2
  br i1 %.not12, label %19, label %16

16:                                               ; preds = %14
  %17 = getelementptr i8, ptr %1, i64 %2
  %18 = getelementptr i8, ptr %17, i64 -1
  store i8 0, ptr %18, align 1, !tbaa !33
  br label %19

19:                                               ; preds = %10, %16, %14, %3
  %.0 = phi i64 [ %13, %16 ], [ %13, %14 ], [ %13, %10 ], [ -1, %3 ]
  ret i64 %.0
}